; Function Attrs: nounwind uwtable
define internal void @_ZThn72_N12_GLOBAL__N_120HQTransportByteEventD0Ev(ptr noundef %this) unnamed_addr #10 align 2 personality ptr @__gxx_personality_v0 {
entry:
  %0 = getelementptr inbounds i8, ptr %this, i64 -72
  store ptr getelementptr inbounds ({ [6 x ptr] }, ptr @_ZTVN8proxygen20TransactionByteEventE, i64 0, i32 0, i64 2), ptr %0, align 8
  %txn_.i.i.i = getelementptr inbounds i8, ptr %this, i64 -8
  %1 = load ptr, ptr %txn_.i.i.i, align 8
  invoke void @_ZN8proxygen15HTTPTransaction26decrementPendingByteEventsEv(ptr noundef nonnull align 8 dereferenceable(912) %1)
          to label %invoke.cont.i.i.i unwind label %terminate.lpad.i.i.i

invoke.cont.i.i.i:                                ; preds = %entry
  store ptr getelementptr inbounds ({ [6 x ptr] }, ptr @_ZTVN8proxygen9ByteEventE, i64 0, i32 0, i64 2), ptr %0, align 8
  %_M_manager.i.i.i.i.i.i = getelementptr inbounds i8, ptr %this, i64 -24
  %2 = load ptr, ptr %_M_manager.i.i.i.i.i.i, align 8
  %tobool.not.i.i.i.i.i.i = icmp eq ptr %2, null
  br i1 %tobool.not.i.i.i.i.i.i, label %_ZN12_GLOBAL__N_120HQTransportByteEventD0Ev.exit, label %if.then.i.i.i.i.i.i

if.then.i.i.i.i.i.i:                              ; preds = %invoke.cont.i.i.i
  %callback_.i.i.i.i = getelementptr inbounds i8, ptr %this, i64 -40
  %call.i.i.i.i.i.i = invoke noundef zeroext i1 %2(ptr noundef nonnull align 8 dereferenceable(16) %callback_.i.i.i.i, ptr noundef nonnull align 8 dereferenceable(16) %callback_.i.i.i.i, i32 noundef 3)
          to label %_ZN12_GLOBAL__N_120HQTransportByteEventD0Ev.exit unwind label %terminate.lpad.i.i.i.i.i.i

terminate.lpad.i.i.i.i.i.i:                       ; preds = %if.then.i.i.i.i.i.i
  %3 = landingpad { ptr, i32 }
          catch ptr null
  %4 = extractvalue { ptr, i32 } %3, 0
  tail call void @__clang_call_terminate(ptr %4) #16
  unreachable

terminate.lpad.i.i.i:                             ; preds = %entry
  %5 = landingpad { ptr, i32 }
          catch ptr null
  %6 = extractvalue { ptr, i32 } %5, 0
  tail call void @__clang_call_terminate(ptr %6) #16
  unreachable

_ZN12_GLOBAL__N_120HQTransportByteEventD0Ev.exit: ; preds = %invoke.cont.i.i.i, %if.then.i.i.i.i.i.i
  tail call void @_ZdlPv(ptr noundef nonnull %0) #18
  ret void
}